target datalayout = "e-m:e-p270:32:32-p271:32:32-p272:64:64-i64:64-i128:128-f80:128-n8:16:32:64-S128"
target triple = "x86_64-pc-linux-gnu"

%struct.png_struct_def = type { [1 x %struct.__jmp_buf_tag], ptr, ptr, i64, ptr, ptr, ptr, ptr, ptr, ptr, ptr, ptr, ptr, i8, i8, i32, i32, i32, i32, %struct.z_stream_s, ptr, i32, i32, i32, i32, i32, i32, i32, i32, i32, i32, i32, i32, i32, i32, i32, i32, i32, i32, i32, i32, i32, i64, i32, i32, i32, ptr, ptr, ptr, ptr, i64, i32, i32, ptr, i16, i32, i16, i8, i8, i8, i8, i8, i8, i8, i8, i8, i8, i8, i8, i8, i8, i8, i16, i8, i32, %struct.png_color_16_struct, %struct.png_color_16_struct, ptr, i32, i32, %struct.png_xy, i32, i32, i32, i32, i32, ptr, ptr, ptr, ptr, ptr, ptr, %struct.png_color_8_struct, %struct.png_color_8_struct, ptr, %struct.png_color_16_struct, ptr, ptr, ptr, ptr, ptr, ptr, ptr, ptr, ptr, i32, i32, i64, i64, i64, i64, i32, i32, ptr, ptr, i32, [29 x i8], i32, ptr, ptr, i32, i32, ptr, i8, i8, i16, i16, ptr, i32, i8, ptr, ptr, ptr, ptr, ptr, ptr, ptr, i8, i32, i32, i32, i64, %struct.png_unknown_chunk_t, i64, ptr, i64, i32, i32, ptr, [4 x ptr] }
%struct.__jmp_buf_tag = type { [8 x i64], i32, %struct.__sigset_t }
%struct.__sigset_t = type { [16 x i64] }
%struct.z_stream_s = type { ptr, i32, i64, ptr, i32, i64, ptr, ptr, ptr, ptr, ptr, i32, i64, i64 }
%struct.png_xy = type { i32, i32, i32, i32, i32, i32, i32, i32 }
%struct.png_color_8_struct = type { i8, i8, i8, i8, i8 }
%struct.png_color_16_struct = type { i8, i16, i16, i16, i16 }
%struct.png_unknown_chunk_t = type { [5 x i8], ptr, i64, i8 }

@.str.1 = private unnamed_addr constant [30 x i8] c"internal error: array realloc\00", align 1

; Function Attrs: nounwind uwtable
define noalias ptr @png_malloc_base(ptr noalias noundef %0, i64 noundef %1) #0 {
  %3 = alloca ptr, align 8
  %4 = alloca ptr, align 8
  %5 = alloca i64, align 8
  store ptr %0, ptr %4, align 8, !tbaa !3
  store i64 %1, ptr %5, align 8, !tbaa !13
  %6 = load i64, ptr %5, align 8, !tbaa !13
  %7 = icmp ugt i64 %6, -1
  br i1 %7, label %8, label %9

8:                                                ; preds = %2
  store ptr null, ptr %3, align 8
  br label %27

9:                                                ; preds = %2
  %10 = load ptr, ptr %4, align 8, !tbaa !3
  %11 = icmp ne ptr %10, null
  br i1 %11, label %12, label %24

12:                                               ; preds = %9
  %13 = load ptr, ptr %4, align 8, !tbaa !3
  %14 = getelementptr inbounds nuw %struct.png_struct_def, ptr %13, i32 0, i32 131
  %15 = load ptr, ptr %14, align 8, !tbaa !36
  %16 = icmp ne ptr %15, null
  br i1 %16, label %17, label %24

17:                                               ; preds = %12
  %18 = load ptr, ptr %4, align 8, !tbaa !3
  %19 = getelementptr inbounds nuw %struct.png_struct_def, ptr %18, i32 0, i32 131
  %20 = load ptr, ptr %19, align 8, !tbaa !36
  %21 = load ptr, ptr %4, align 8, !tbaa !3
  %22 = load i64, ptr %5, align 8, !tbaa !13
  %23 = call ptr %20(ptr noundef %21, i64 noundef %22)
  store ptr %23, ptr %3, align 8
  br label %27

24:                                               ; preds = %12, %9
  %25 = load i64, ptr %5, align 8, !tbaa !13
  %26 = call noalias ptr @malloc(i64 noundef %25) #10
  store ptr %26, ptr %3, align 8
  br label %27

27:                                               ; preds = %24, %17, %8
  %28 = load ptr, ptr %3, align 8
  ret ptr %28
}

; Function Attrs: nounwind uwtable
define internal ptr @png_malloc_array_checked(ptr noalias noundef %0, i32 noundef %1, i64 noundef %2) #0 {
  %4 = alloca ptr, align 8
  %5 = alloca ptr, align 8
  %6 = alloca i32, align 4
  %7 = alloca i64, align 8
  %8 = alloca i64, align 8
  %9 = alloca i32, align 4
  store ptr %0, ptr %5, align 8, !tbaa !3
  store i32 %1, ptr %6, align 4, !tbaa !15
  store i64 %2, ptr %7, align 8, !tbaa !13
  call void @llvm.lifetime.start.p0(i64 8, ptr %8) #8
  %10 = load i32, ptr %6, align 4, !tbaa !15
  %11 = sext i32 %10 to i64
  store i64 %11, ptr %8, align 8, !tbaa !13
  %12 = load i64, ptr %8, align 8, !tbaa !13
  %13 = load i64, ptr %7, align 8, !tbaa !13
  %14 = udiv i64 -1, %13
  %15 = icmp ule i64 %12, %14
  br i1 %15, label %16, label %22

16:                                               ; preds = %3
  %17 = load ptr, ptr %5, align 8, !tbaa !3
  %18 = load i64, ptr %8, align 8, !tbaa !13
  %19 = load i64, ptr %7, align 8, !tbaa !13
  %20 = mul i64 %18, %19
  %21 = call noalias ptr @png_malloc_base(ptr noundef %17, i64 noundef %20)
  store ptr %21, ptr %4, align 8
  store i32 1, ptr %9, align 4
  br label %23

22:                                               ; preds = %3
  store ptr null, ptr %4, align 8
  store i32 1, ptr %9, align 4
  br label %23

23:                                               ; preds = %22, %16
  call void @llvm.lifetime.end.p0(i64 8, ptr %8) #8
  %24 = load ptr, ptr %4, align 8
  ret ptr %24
}

; Function Attrs: nounwind uwtable
define noalias ptr @png_realloc_array(ptr noalias noundef %0, ptr noundef %1, i32 noundef %2, i32 noundef %3, i64 noundef %4) #0 {
  %6 = alloca ptr, align 8
  %7 = alloca ptr, align 8
  %8 = alloca ptr, align 8
  %9 = alloca i32, align 4
  %10 = alloca i32, align 4
  %11 = alloca i64, align 8
  %12 = alloca ptr, align 8
  %13 = alloca i32, align 4
  store ptr %0, ptr %7, align 8, !tbaa !3
  store ptr %1, ptr %8, align 8, !tbaa !10
  store i32 %2, ptr %9, align 4, !tbaa !15
  store i32 %3, ptr %10, align 4, !tbaa !15
  store i64 %4, ptr %11, align 8, !tbaa !13
  %14 = load i32, ptr %10, align 4, !tbaa !15
  %15 = icmp sle i32 %14, 0
  br i1 %15, label %28, label %16

16:                                               ; preds = %5
  %17 = load i64, ptr %11, align 8, !tbaa !13
  %18 = icmp eq i64 %17, 0
  br i1 %18, label %28, label %19

19:                                               ; preds = %16
  %20 = load i32, ptr %9, align 4, !tbaa !15
  %21 = icmp slt i32 %20, 0
  br i1 %21, label %28, label %22

22:                                               ; preds = %19
  %23 = load ptr, ptr %8, align 8, !tbaa !10
  %24 = icmp eq ptr %23, null
  br i1 %24, label %25, label %30

25:                                               ; preds = %22
  %26 = load i32, ptr %9, align 4, !tbaa !15
  %27 = icmp sgt i32 %26, 0
  br i1 %27, label %28, label %30

28:                                               ; preds = %25, %19, %16, %5
  %29 = load ptr, ptr %7, align 8, !tbaa !3
  call void @png_error(ptr noundef %29, ptr noundef @.str.1) #9
  unreachable

30:                                               ; preds = %25, %22
  %31 = load i32, ptr %10, align 4, !tbaa !15
  %32 = load i32, ptr %9, align 4, !tbaa !15
  %33 = sub nsw i32 2147483647, %32
  %34 = icmp sle i32 %31, %33
  br i1 %34, label %35, label %70

35:                                               ; preds = %30
  call void @llvm.lifetime.start.p0(i64 8, ptr %12) #8
  %36 = load ptr, ptr %7, align 8, !tbaa !3
  %37 = load i32, ptr %9, align 4, !tbaa !15
  %38 = load i32, ptr %10, align 4, !tbaa !15
  %39 = add nsw i32 %37, %38
  %40 = load i64, ptr %11, align 8, !tbaa !13
  %41 = call ptr @png_malloc_array_checked(ptr noundef %36, i32 noundef %39, i64 noundef %40)
  store ptr %41, ptr %12, align 8, !tbaa !10
  %42 = load ptr, ptr %12, align 8, !tbaa !10
  %43 = icmp ne ptr %42, null
  br i1 %43, label %44, label %66

44:                                               ; preds = %35
  %45 = load i32, ptr %9, align 4, !tbaa !15
  %46 = icmp sgt i32 %45, 0
  br i1 %46, label %47, label %54

47:                                               ; preds = %44
  %48 = load ptr, ptr %12, align 8, !tbaa !10
  %49 = load ptr, ptr %8, align 8, !tbaa !10
  %50 = load i64, ptr %11, align 8, !tbaa !13
  %51 = load i32, ptr %9, align 4, !tbaa !15
  %52 = zext i32 %51 to i64
  %53 = mul i64 %50, %52
  call void @llvm.memcpy.p0.p0.i64(ptr align 1 %48, ptr align 1 %49, i64 %53, i1 false)
  br label %54

54:                                               ; preds = %47, %44
  %55 = load ptr, ptr %12, align 8, !tbaa !10
  %56 = load i64, ptr %11, align 8, !tbaa !13
  %57 = load i32, ptr %9, align 4, !tbaa !15
  %58 = zext i32 %57 to i64
  %59 = mul i64 %56, %58
  %60 = getelementptr inbounds nuw i8, ptr %55, i64 %59
  %61 = load i64, ptr %11, align 8, !tbaa !13
  %62 = load i32, ptr %10, align 4, !tbaa !15
  %63 = zext i32 %62 to i64
  %64 = mul i64 %61, %63
  call void @llvm.memset.p0.i64(ptr align 1 %60, i8 0, i64 %64, i1 false)
  %65 = load ptr, ptr %12, align 8, !tbaa !10
  store ptr %65, ptr %6, align 8
  store i32 1, ptr %13, align 4
  br label %67

66:                                               ; preds = %35
  store i32 0, ptr %13, align 4
  br label %67

67:                                               ; preds = %66, %54
  call void @llvm.lifetime.end.p0(i64 8, ptr %12) #8
  %68 = load i32, ptr %13, align 4
  switch i32 %68, label %73 [
    i32 0, label %69
    i32 1, label %71
  ]

69:                                               ; preds = %67
  br label %70

70:                                               ; preds = %69, %30
  store ptr null, ptr %6, align 8
  br label %71

71:                                               ; preds = %70, %67
  %72 = load ptr, ptr %6, align 8
  ret ptr %72

73:                                               ; preds = %67
  unreachable
}