; Function Attrs: nounwind uwtable
define noalias ptr @png_realloc_array(ptr noalias noundef %0, ptr noundef readonly captures(address_is_null) %1, i32 noundef %2, i32 noundef %3, i64 noundef %4) local_unnamed_addr #0 {
  %6 = icmp slt i32 %3, 1
  %7 = icmp eq i64 %4, 0
  %or.cond = or i1 %6, %7
  %8 = icmp slt i32 %2, 0
  %or.cond3 = or i1 %8, %or.cond
  br i1 %or.cond3, label %12, label %9

9:                                                ; preds = %5
  %10 = icmp eq ptr %1, null
  %11 = icmp ne i32 %2, 0
  %or.cond5 = and i1 %10, %11
  br i1 %or.cond5, label %12, label %13

12:                                               ; preds = %9, %5
  tail call void @png_error(ptr noundef %0, ptr noundef nonnull @.str.1) #14
  unreachable

13:                                               ; preds = %9
  %14 = sub nuw nsw i32 2147483647, %2
  %.not = icmp samesign ugt i32 %3, %14
  br i1 %.not, label %.thread, label %15

15:                                               ; preds = %13
  %16 = add nuw nsw i32 %3, %2
  %17 = zext nneg i32 %16 to i64
  %mul.i = tail call { i64, i1 } @llvm.umul.with.overflow.i64(i64 range(i64 1, 0) %4, i64 %17)
  %mul.ov.i = extractvalue { i64, i1 } %mul.i, 1
  br i1 %mul.ov.i, label %.thread, label %18

18:                                               ; preds = %15
  %19 = mul i64 %4, %17
  %.not.i.i = icmp eq ptr %0, null
  br i1 %.not.i.i, label %25, label %20

20:                                               ; preds = %18
  %21 = getelementptr inbounds nuw i8, ptr %0, i64 1064
  %22 = load ptr, ptr %21, align 8, !tbaa !37, !alias.scope !51
  %.not9.i.i = icmp eq ptr %22, null
  br i1 %.not9.i.i, label %25, label %23

23:                                               ; preds = %20
  %24 = tail call ptr %22(ptr noundef nonnull %0, i64 noundef %19) #12
  br label %png_malloc_array_checked.exit

25:                                               ; preds = %20, %18
  %26 = tail call noalias ptr @malloc(i64 noundef %19) #13
  br label %png_malloc_array_checked.exit

png_malloc_array_checked.exit:                    ; preds = %23, %25
  %.0.i = phi ptr [ %24, %23 ], [ %26, %25 ]
  %.not35.not = icmp eq ptr %.0.i, null
  br i1 %.not35.not, label %.thread, label %27

27:                                               ; preds = %png_malloc_array_checked.exit
  br i1 %11, label %28, label %._crit_edge

28:                                               ; preds = %27
  %29 = zext nneg i32 %2 to i64
  %30 = mul i64 %4, %29
  tail call void @llvm.memcpy.p0.p0.i64(ptr nonnull align 1 %.0.i, ptr align 1 %1, i64 %30, i1 false)
  br label %._crit_edge

._crit_edge:                                      ; preds = %27, %28
  %.pre-phi44 = phi i64 [ %30, %28 ], [ 0, %27 ]
  %31 = getelementptr inbounds nuw i8, ptr %.0.i, i64 %.pre-phi44
  %32 = zext nneg i32 %3 to i64
  %33 = mul i64 %4, %32
  tail call void @llvm.memset.p0.i64(ptr nonnull align 1 %31, i8 0, i64 %33, i1 false)
  br label %.thread

.thread:                                          ; preds = %15, %png_malloc_array_checked.exit, %13, %._crit_edge
  %.1 = phi ptr [ %.0.i, %._crit_edge ], [ null, %13 ], [ null, %png_malloc_array_checked.exit ], [ null, %15 ]
  ret ptr %.1
}